target datalayout = "e-m:e-p270:32:32-p271:32:32-p272:64:64-i64:64-i128:128-f80:128-n8:16:32:64-S128"
target triple = "x86_64-pc-linux-gnu"

%"struct.duckdb_miniz::tdefl_output_buffer" = type { i64, i64, ptr, i32 }

; Function Attrs: mustprogress uwtable
define noundef ptr @_ZN12duckdb_miniz26tdefl_compress_mem_to_heapEPKvmPmi(ptr noundef %0, i64 noundef %1, ptr noundef %2, i32 noundef %3) #5 {
  %5 = alloca ptr, align 8
  %6 = alloca ptr, align 8
  %7 = alloca i64, align 8
  %8 = alloca ptr, align 8
  %9 = alloca i32, align 4
  %10 = alloca %"struct.duckdb_miniz::tdefl_output_buffer", align 8
  %11 = alloca i32, align 4
  store ptr %0, ptr %6, align 8, !tbaa !19
  store i64 %1, ptr %7, align 8, !tbaa !3
  store ptr %2, ptr %8, align 8, !tbaa !78
  store i32 %3, ptr %9, align 4, !tbaa !10
  call void @llvm.lifetime.start.p0(i64 32, ptr %10) #11
  call void @llvm.memset.p0.i64(ptr align 8 %10, i8 0, i64 32, i1 false)
  %12 = load ptr, ptr %8, align 8, !tbaa !78
  %13 = icmp ne ptr %12, null
  br i1 %13, label %15, label %14

14:                                               ; preds = %4
  store ptr null, ptr %5, align 8
  store i32 1, ptr %11, align 4
  br label %31

15:                                               ; preds = %4
  %16 = load ptr, ptr %8, align 8, !tbaa !78
  store i64 0, ptr %16, align 8, !tbaa !3
  br label %17

17:                                               ; preds = %15
  %18 = getelementptr inbounds nuw %"struct.duckdb_miniz::tdefl_output_buffer", ptr %10, i32 0, i32 3
  store i32 1, ptr %18, align 8, !tbaa !215
  %19 = load ptr, ptr %6, align 8, !tbaa !19
  %20 = load i64, ptr %7, align 8, !tbaa !3
  %21 = load i32, ptr %9, align 4, !tbaa !10
  %22 = call noundef i32 @_ZN12duckdb_miniz28tdefl_compress_mem_to_outputEPKvmPFiS1_iPvES2_i(ptr noundef %19, i64 noundef %20, ptr noundef @_ZN12duckdb_minizL26tdefl_output_buffer_putterEPKviPv, ptr noundef %10, i32 noundef %21)
  %23 = icmp ne i32 %22, 0
  br i1 %23, label %25, label %24

24:                                               ; preds = %17
  store ptr null, ptr %5, align 8
  store i32 1, ptr %11, align 4
  br label %31

25:                                               ; preds = %17
  %26 = getelementptr inbounds nuw %"struct.duckdb_miniz::tdefl_output_buffer", ptr %10, i32 0, i32 0
  %27 = load i64, ptr %26, align 8, !tbaa !217
  %28 = load ptr, ptr %8, align 8, !tbaa !78
  store i64 %27, ptr %28, align 8, !tbaa !3
  %29 = getelementptr inbounds nuw %"struct.duckdb_miniz::tdefl_output_buffer", ptr %10, i32 0, i32 2
  %30 = load ptr, ptr %29, align 8, !tbaa !218
  store ptr %30, ptr %5, align 8
  store i32 1, ptr %11, align 4
  br label %31

31:                                               ; preds = %25, %24, %14
  call void @llvm.lifetime.end.p0(i64 32, ptr %10) #11
  %32 = load ptr, ptr %5, align 8
  ret ptr %32
}