; Function Attrs: mustprogress uwtable
define noundef ptr @_ZN12duckdb_miniz26tdefl_compress_mem_to_heapEPKvmPmi(ptr noundef %0, i64 noundef %1, ptr noundef writeonly captures(address_is_null) %2, i32 noundef %3) local_unnamed_addr #8 {
  %5 = alloca %"struct.duckdb_miniz::tdefl_output_buffer", align 8
  call void @llvm.lifetime.start.p0(i64 32, ptr nonnull %5) #25
  call void @llvm.memset.p0.i64(ptr noundef nonnull align 8 dereferenceable(32) %5, i8 0, i64 32, i1 false)
  %.not = icmp eq ptr %2, null
  br i1 %.not, label %13, label %6

6:                                                ; preds = %4
  store i64 0, ptr %2, align 8, !tbaa !53
  %7 = getelementptr inbounds nuw i8, ptr %5, i64 24
  store i32 1, ptr %7, align 8, !tbaa !194
  %8 = call noundef i32 @_ZN12duckdb_miniz28tdefl_compress_mem_to_outputEPKvmPFiS1_iPvES2_i(ptr noundef %0, i64 noundef %1, ptr noundef nonnull @_ZN12duckdb_minizL26tdefl_output_buffer_putterEPKviPv, ptr noundef nonnull %5, i32 noundef %3)
  %.not7 = icmp eq i32 %8, 0
  br i1 %.not7, label %13, label %9

9:                                                ; preds = %6
  %10 = load i64, ptr %5, align 8, !tbaa !196
  store i64 %10, ptr %2, align 8, !tbaa !53
  %11 = getelementptr inbounds nuw i8, ptr %5, i64 16
  %12 = load ptr, ptr %11, align 8, !tbaa !197
  br label %13

13:                                               ; preds = %6, %4, %9
  %.0 = phi ptr [ %12, %9 ], [ null, %4 ], [ null, %6 ]
  call void @llvm.lifetime.end.p0(i64 32, ptr nonnull %5) #25
  ret ptr %.0
}